target datalayout = "e-m:e-p270:32:32-p271:32:32-p272:64:64-i64:64-i128:128-f80:128-n8:16:32:64-S128"
target triple = "x86_64-pc-linux-gnu"

%struct.If_DsdMan_t_ = type { ptr, i32, i32, i32, i32, ptr, ptr, %struct.Vec_Ptr_t_, %struct.Vec_Int_t_, %struct.Vec_Int_t_, ptr, ptr, ptr, [16 x ptr], [16 x ptr], [16 x ptr], [16 x ptr], i32, i32, ptr, ptr, ptr, ptr, ptr, i32, i32, i32, i32, i64, i64, i64, i64, i64 }
%struct.Vec_Ptr_t_ = type { i32, i32, ptr }
%struct.Vec_Int_t_ = type { i32, i32, ptr }
%struct.If_DsdObj_t_ = type { i32, i32, [0 x i32] }

; Function Attrs: inlinehint nounwind uwtable
define internal i32 @Vec_IntEntry(ptr noundef %0, i32 noundef %1) #1 {
  %3 = alloca ptr, align 8
  %4 = alloca i32, align 4
  store ptr %0, ptr %3, align 8, !tbaa !47
  store i32 %1, ptr %4, align 4, !tbaa !27
  %5 = load ptr, ptr %3, align 8, !tbaa !47
  %6 = getelementptr inbounds nuw %struct.Vec_Int_t_, ptr %5, i32 0, i32 2
  %7 = load ptr, ptr %6, align 8, !tbaa !50
  %8 = load i32, ptr %4, align 4, !tbaa !27
  %9 = sext i32 %8 to i64
  %10 = getelementptr inbounds i32, ptr %7, i64 %9
  %11 = load i32, ptr %10, align 4, !tbaa !27
  ret i32 %11
}

; Function Attrs: inlinehint nounwind uwtable
define internal ptr @Vec_PtrEntry(ptr noundef %0, i32 noundef %1) #1 {
  %3 = alloca ptr, align 8
  %4 = alloca i32, align 4
  store ptr %0, ptr %3, align 8, !tbaa !22
  store i32 %1, ptr %4, align 4, !tbaa !27
  %5 = load ptr, ptr %3, align 8, !tbaa !22
  %6 = getelementptr inbounds nuw %struct.Vec_Ptr_t_, ptr %5, i32 0, i32 2
  %7 = load ptr, ptr %6, align 8, !tbaa !46
  %8 = load i32, ptr %4, align 4, !tbaa !27
  %9 = sext i32 %8 to i64
  %10 = getelementptr inbounds ptr, ptr %7, i64 %9
  %11 = load ptr, ptr %10, align 8, !tbaa !44
  ret ptr %11
}

; Function Attrs: inlinehint nounwind uwtable
define internal i32 @Abc_LitIsCompl(i32 noundef %0) #1 {
  %2 = alloca i32, align 4
  store i32 %0, ptr %2, align 4, !tbaa !27
  %3 = load i32, ptr %2, align 4, !tbaa !27
  %4 = and i32 %3, 1
  ret i32 %4
}

; Function Attrs: inlinehint nounwind uwtable
define internal i32 @If_DsdObjFaninLit(ptr noundef %0, i32 noundef %1) #1 {
  %3 = alloca ptr, align 8
  %4 = alloca i32, align 4
  store ptr %0, ptr %3, align 8, !tbaa !40
  store i32 %1, ptr %4, align 4, !tbaa !27
  %5 = load ptr, ptr %3, align 8, !tbaa !40
  %6 = getelementptr inbounds nuw %struct.If_DsdObj_t_, ptr %5, i32 0, i32 2
  %7 = load i32, ptr %4, align 4, !tbaa !27
  %8 = sext i32 %7 to i64
  %9 = getelementptr inbounds [0 x i32], ptr %6, i64 0, i64 %8
  %10 = load i32, ptr %9, align 4, !tbaa !27
  ret i32 %10
}

; Function Attrs: inlinehint nounwind uwtable
define internal i32 @If_DsdObjTruthId(ptr noundef %0, ptr noundef %1) #1 {
  %3 = alloca ptr, align 8
  %4 = alloca ptr, align 8
  store ptr %0, ptr %3, align 8, !tbaa !3
  store ptr %1, ptr %4, align 8, !tbaa !40
  %5 = load ptr, ptr %4, align 8, !tbaa !40
  %6 = getelementptr inbounds nuw %struct.If_DsdObj_t_, ptr %5, i32 0, i32 1
  %7 = load i32, ptr %6, align 4
  %8 = and i32 %7, 7
  %9 = icmp eq i32 %8, 6
  br i1 %9, label %10, label %23

10:                                               ; preds = %2
  %11 = load ptr, ptr %4, align 8, !tbaa !40
  %12 = getelementptr inbounds nuw %struct.If_DsdObj_t_, ptr %11, i32 0, i32 1
  %13 = load i32, ptr %12, align 4
  %14 = lshr i32 %13, 27
  %15 = icmp sgt i32 %14, 2
  br i1 %15, label %16, label %23

16:                                               ; preds = %10
  %17 = load ptr, ptr %3, align 8, !tbaa !3
  %18 = getelementptr inbounds nuw %struct.If_DsdMan_t_, ptr %17, i32 0, i32 9
  %19 = load ptr, ptr %4, align 8, !tbaa !40
  %20 = getelementptr inbounds nuw %struct.If_DsdObj_t_, ptr %19, i32 0, i32 0
  %21 = load i32, ptr %20, align 4, !tbaa !42
  %22 = call i32 @Vec_IntEntry(ptr noundef %18, i32 noundef %21)
  br label %24

23:                                               ; preds = %10, %2
  br label %24

24:                                               ; preds = %23, %16
  %25 = phi i32 [ %22, %16 ], [ -1, %23 ]
  ret i32 %25
}

; Function Attrs: inlinehint nounwind uwtable
define internal i32 @If_DsdObjFaninNum(ptr noundef %0) #1 {
  %2 = alloca ptr, align 8
  store ptr %0, ptr %2, align 8, !tbaa !40
  %3 = load ptr, ptr %2, align 8, !tbaa !40
  %4 = getelementptr inbounds nuw %struct.If_DsdObj_t_, ptr %3, i32 0, i32 1
  %5 = load i32, ptr %4, align 4
  %6 = lshr i32 %5, 27
  ret i32 %6
}

; Function Attrs: inlinehint nounwind uwtable
define internal i32 @If_DsdObjType(ptr noundef %0) #1 {
  %2 = alloca ptr, align 8
  store ptr %0, ptr %2, align 8, !tbaa !40
  %3 = load ptr, ptr %2, align 8, !tbaa !40
  %4 = getelementptr inbounds nuw %struct.If_DsdObj_t_, ptr %3, i32 0, i32 1
  %5 = load i32, ptr %4, align 4
  %6 = and i32 %5, 7
  ret i32 %6
}

; Function Attrs: inlinehint nounwind uwtable
define internal ptr @If_DsdVecObj(ptr noundef %0, i32 noundef %1) #1 {
  %3 = alloca ptr, align 8
  %4 = alloca i32, align 4
  store ptr %0, ptr %3, align 8, !tbaa !22
  store i32 %1, ptr %4, align 4, !tbaa !27
  %5 = load ptr, ptr %3, align 8, !tbaa !22
  %6 = load i32, ptr %4, align 4, !tbaa !27
  %7 = call ptr @Vec_PtrEntry(ptr noundef %5, i32 noundef %6)
  ret ptr %7
}

; Function Attrs: inlinehint nounwind uwtable
define internal i32 @Abc_Lit2Var(i32 noundef %0) #1 {
  %2 = alloca i32, align 4
  store i32 %0, ptr %2, align 4, !tbaa !27
  %3 = load i32, ptr %2, align 4, !tbaa !27
  %4 = ashr i32 %3, 1
  ret i32 %4
}

; Function Attrs: nounwind uwtable
define i32 @If_DsdObjCompare(ptr noundef %0, ptr noundef %1, i32 noundef %2, i32 noundef %3) #0 {
  %5 = alloca i32, align 4
  %6 = alloca ptr, align 8
  %7 = alloca ptr, align 8
  %8 = alloca i32, align 4
  %9 = alloca i32, align 4
  %10 = alloca ptr, align 8
  %11 = alloca ptr, align 8
  %12 = alloca i32, align 4
  %13 = alloca i32, align 4
  %14 = alloca i32, align 4
  store ptr %0, ptr %6, align 8, !tbaa !3
  store ptr %1, ptr %7, align 8, !tbaa !22
  store i32 %2, ptr %8, align 4, !tbaa !27
  store i32 %3, ptr %9, align 4, !tbaa !27
  call void @llvm.lifetime.start.p0(i64 8, ptr %10) #15
  %15 = load ptr, ptr %7, align 8, !tbaa !22
  %16 = load i32, ptr %8, align 4, !tbaa !27
  %17 = call i32 @Abc_Lit2Var(i32 noundef %16)
  %18 = call ptr @If_DsdVecObj(ptr noundef %15, i32 noundef %17)
  store ptr %18, ptr %10, align 8, !tbaa !40
  call void @llvm.lifetime.start.p0(i64 8, ptr %11) #15
  %19 = load ptr, ptr %7, align 8, !tbaa !22
  %20 = load i32, ptr %9, align 4, !tbaa !27
  %21 = call i32 @Abc_Lit2Var(i32 noundef %20)
  %22 = call ptr @If_DsdVecObj(ptr noundef %19, i32 noundef %21)
  store ptr %22, ptr %11, align 8, !tbaa !40
  call void @llvm.lifetime.start.p0(i64 4, ptr %12) #15
  call void @llvm.lifetime.start.p0(i64 4, ptr %13) #15
  %23 = load ptr, ptr %10, align 8, !tbaa !40
  %24 = call i32 @If_DsdObjType(ptr noundef %23)
  %25 = load ptr, ptr %11, align 8, !tbaa !40
  %26 = call i32 @If_DsdObjType(ptr noundef %25)
  %27 = icmp slt i32 %24, %26
  br i1 %27, label %28, label %29

28:                                               ; preds = %4
  store i32 -1, ptr %5, align 4
  store i32 1, ptr %14, align 4
  br label %117

29:                                               ; preds = %4
  %30 = load ptr, ptr %10, align 8, !tbaa !40
  %31 = call i32 @If_DsdObjType(ptr noundef %30)
  %32 = load ptr, ptr %11, align 8, !tbaa !40
  %33 = call i32 @If_DsdObjType(ptr noundef %32)
  %34 = icmp sgt i32 %31, %33
  br i1 %34, label %35, label %36

35:                                               ; preds = %29
  store i32 1, ptr %5, align 4
  store i32 1, ptr %14, align 4
  br label %117

36:                                               ; preds = %29
  %37 = load ptr, ptr %10, align 8, !tbaa !40
  %38 = call i32 @If_DsdObjType(ptr noundef %37)
  %39 = icmp slt i32 %38, 3
  br i1 %39, label %40, label %41

40:                                               ; preds = %36
  store i32 0, ptr %5, align 4
  store i32 1, ptr %14, align 4
  br label %117

41:                                               ; preds = %36
  %42 = load ptr, ptr %10, align 8, !tbaa !40
  %43 = call i32 @If_DsdObjFaninNum(ptr noundef %42)
  %44 = load ptr, ptr %11, align 8, !tbaa !40
  %45 = call i32 @If_DsdObjFaninNum(ptr noundef %44)
  %46 = icmp slt i32 %43, %45
  br i1 %46, label %47, label %48

47:                                               ; preds = %41
  store i32 -1, ptr %5, align 4
  store i32 1, ptr %14, align 4
  br label %117

48:                                               ; preds = %41
  %49 = load ptr, ptr %10, align 8, !tbaa !40
  %50 = call i32 @If_DsdObjFaninNum(ptr noundef %49)
  %51 = load ptr, ptr %11, align 8, !tbaa !40
  %52 = call i32 @If_DsdObjFaninNum(ptr noundef %51)
  %53 = icmp sgt i32 %50, %52
  br i1 %53, label %54, label %55

54:                                               ; preds = %48
  store i32 1, ptr %5, align 4
  store i32 1, ptr %14, align 4
  br label %117

55:                                               ; preds = %48
  %56 = load ptr, ptr %10, align 8, !tbaa !40
  %57 = call i32 @If_DsdObjType(ptr noundef %56)
  %58 = icmp eq i32 %57, 6
  br i1 %58, label %59, label %78

59:                                               ; preds = %55
  %60 = load ptr, ptr %6, align 8, !tbaa !3
  %61 = load ptr, ptr %10, align 8, !tbaa !40
  %62 = call i32 @If_DsdObjTruthId(ptr noundef %60, ptr noundef %61)
  %63 = load ptr, ptr %6, align 8, !tbaa !3
  %64 = load ptr, ptr %11, align 8, !tbaa !40
  %65 = call i32 @If_DsdObjTruthId(ptr noundef %63, ptr noundef %64)
  %66 = icmp slt i32 %62, %65
  br i1 %66, label %67, label %68

67:                                               ; preds = %59
  store i32 -1, ptr %5, align 4
  store i32 1, ptr %14, align 4
  br label %117

68:                                               ; preds = %59
  %69 = load ptr, ptr %6, align 8, !tbaa !3
  %70 = load ptr, ptr %10, align 8, !tbaa !40
  %71 = call i32 @If_DsdObjTruthId(ptr noundef %69, ptr noundef %70)
  %72 = load ptr, ptr %6, align 8, !tbaa !3
  %73 = load ptr, ptr %11, align 8, !tbaa !40
  %74 = call i32 @If_DsdObjTruthId(ptr noundef %72, ptr noundef %73)
  %75 = icmp sgt i32 %71, %74
  br i1 %75, label %76, label %77

76:                                               ; preds = %68
  store i32 1, ptr %5, align 4
  store i32 1, ptr %14, align 4
  br label %117

77:                                               ; preds = %68
  br label %78

78:                                               ; preds = %77, %55
  store i32 0, ptr %12, align 4, !tbaa !27
  br label %79

79:                                               ; preds = %99, %78
  %80 = load i32, ptr %12, align 4, !tbaa !27
  %81 = load ptr, ptr %10, align 8, !tbaa !40
  %82 = call i32 @If_DsdObjFaninNum(ptr noundef %81)
  %83 = icmp slt i32 %80, %82
  br i1 %83, label %84, label %102

84:                                               ; preds = %79
  %85 = load ptr, ptr %6, align 8, !tbaa !3
  %86 = load ptr, ptr %7, align 8, !tbaa !22
  %87 = load ptr, ptr %10, align 8, !tbaa !40
  %88 = load i32, ptr %12, align 4, !tbaa !27
  %89 = call i32 @If_DsdObjFaninLit(ptr noundef %87, i32 noundef %88)
  %90 = load ptr, ptr %11, align 8, !tbaa !40
  %91 = load i32, ptr %12, align 4, !tbaa !27
  %92 = call i32 @If_DsdObjFaninLit(ptr noundef %90, i32 noundef %91)
  %93 = call i32 @If_DsdObjCompare(ptr noundef %85, ptr noundef %86, i32 noundef %89, i32 noundef %92)
  store i32 %93, ptr %13, align 4, !tbaa !27
  %94 = load i32, ptr %13, align 4, !tbaa !27
  %95 = icmp ne i32 %94, 0
  br i1 %95, label %96, label %98

96:                                               ; preds = %84
  %97 = load i32, ptr %13, align 4, !tbaa !27
  store i32 %97, ptr %5, align 4
  store i32 1, ptr %14, align 4
  br label %117

98:                                               ; preds = %84
  br label %99

99:                                               ; preds = %98
  %100 = load i32, ptr %12, align 4, !tbaa !27
  %101 = add nsw i32 %100, 1
  store i32 %101, ptr %12, align 4, !tbaa !27
  br label %79, !llvm.loop !160

102:                                              ; preds = %79
  %103 = load i32, ptr %8, align 4, !tbaa !27
  %104 = call i32 @Abc_LitIsCompl(i32 noundef %103)
  %105 = load i32, ptr %9, align 4, !tbaa !27
  %106 = call i32 @Abc_LitIsCompl(i32 noundef %105)
  %107 = icmp sgt i32 %104, %106
  br i1 %107, label %108, label %109

108:                                              ; preds = %102
  store i32 -1, ptr %5, align 4
  store i32 1, ptr %14, align 4
  br label %117

109:                                              ; preds = %102
  %110 = load i32, ptr %8, align 4, !tbaa !27
  %111 = call i32 @Abc_LitIsCompl(i32 noundef %110)
  %112 = load i32, ptr %9, align 4, !tbaa !27
  %113 = call i32 @Abc_LitIsCompl(i32 noundef %112)
  %114 = icmp slt i32 %111, %113
  br i1 %114, label %115, label %116

115:                                              ; preds = %109
  store i32 1, ptr %5, align 4
  store i32 1, ptr %14, align 4
  br label %117

116:                                              ; preds = %109
  store i32 0, ptr %5, align 4
  store i32 1, ptr %14, align 4
  br label %117

117:                                              ; preds = %116, %115, %108, %96, %76, %67, %54, %47, %40, %35, %28
  call void @llvm.lifetime.end.p0(i64 4, ptr %13) #15
  call void @llvm.lifetime.end.p0(i64 4, ptr %12) #15
  call void @llvm.lifetime.end.p0(i64 8, ptr %11) #15
  call void @llvm.lifetime.end.p0(i64 8, ptr %10) #15
  %118 = load i32, ptr %5, align 4
  ret i32 %118
}