; Function Attrs: nofree nosync nounwind memory(read, inaccessiblemem: none) uwtable
define range(i32 -1, 2) i32 @If_DsdObjCompare(ptr noundef readonly captures(none) %0, ptr noundef readonly captures(none) %1, i32 noundef %2, i32 noundef %3) local_unnamed_addr #12 {
  %5 = ashr i32 %2, 1
  %6 = getelementptr i8, ptr %1, i64 8
  %.val39 = load ptr, ptr %6, align 8, !tbaa !23
  %7 = sext i32 %5 to i64
  %8 = getelementptr inbounds ptr, ptr %.val39, i64 %7
  %9 = load ptr, ptr %8, align 8, !tbaa !24
  %10 = ashr i32 %3, 1
  %11 = sext i32 %10 to i64
  %12 = getelementptr inbounds ptr, ptr %.val39, i64 %11
  %13 = load ptr, ptr %12, align 8, !tbaa !24
  %14 = getelementptr i8, ptr %9, i64 4
  %.val45 = load i32, ptr %14, align 4
  %15 = and i32 %.val45, 7
  %16 = getelementptr i8, ptr %13, i64 4
  %.val44 = load i32, ptr %16, align 4
  %17 = and i32 %.val44, 7
  %18 = icmp samesign ult i32 %15, %17
  br i1 %18, label %.loopexit, label %19

19:                                               ; preds = %4
  %20 = icmp samesign ugt i32 %15, %17
  br i1 %20, label %.loopexit, label %21

21:                                               ; preds = %19
  %22 = icmp samesign ult i32 %15, 3
  br i1 %22, label %.loopexit, label %23

23:                                               ; preds = %21
  %24 = lshr i32 %.val45, 27
  %25 = lshr i32 %.val44, 27
  %26 = icmp samesign ult i32 %24, %25
  br i1 %26, label %.loopexit, label %27

27:                                               ; preds = %23
  %28 = icmp samesign ugt i32 %24, %25
  br i1 %28, label %.loopexit, label %29

29:                                               ; preds = %27
  %30 = icmp eq i32 %15, 6
  br i1 %30, label %31, label %65

31:                                               ; preds = %29
  %32 = icmp ugt i32 %.val45, 402653183
  br i1 %32, label %33, label %If_DsdObjTruthId.exit

33:                                               ; preds = %31
  %34 = load i32, ptr %9, align 4, !tbaa !34
  %35 = getelementptr i8, ptr %0, i64 80
  %.val.i = load ptr, ptr %35, align 8, !tbaa !39
  %36 = sext i32 %34 to i64
  %37 = getelementptr inbounds i32, ptr %.val.i, i64 %36
  %38 = load i32, ptr %37, align 4, !tbaa !40
  br label %If_DsdObjTruthId.exit

If_DsdObjTruthId.exit:                            ; preds = %31, %33
  %39 = phi i32 [ %38, %33 ], [ -1, %31 ]
  %40 = icmp ugt i32 %.val44, 402653183
  br i1 %40, label %41, label %If_DsdObjTruthId.exit53

41:                                               ; preds = %If_DsdObjTruthId.exit
  %42 = load i32, ptr %13, align 4, !tbaa !34
  %43 = getelementptr i8, ptr %0, i64 80
  %.val.i52 = load ptr, ptr %43, align 8, !tbaa !39
  %44 = sext i32 %42 to i64
  %45 = getelementptr inbounds i32, ptr %.val.i52, i64 %44
  %46 = load i32, ptr %45, align 4, !tbaa !40
  br label %If_DsdObjTruthId.exit53

If_DsdObjTruthId.exit53:                          ; preds = %If_DsdObjTruthId.exit, %41
  %47 = phi i32 [ %46, %41 ], [ -1, %If_DsdObjTruthId.exit ]
  %48 = icmp slt i32 %39, %47
  br i1 %48, label %.loopexit, label %49

49:                                               ; preds = %If_DsdObjTruthId.exit53
  br i1 %32, label %50, label %If_DsdObjTruthId.exit56

50:                                               ; preds = %49
  %51 = load i32, ptr %9, align 4, !tbaa !34
  %52 = getelementptr i8, ptr %0, i64 80
  %.val.i55 = load ptr, ptr %52, align 8, !tbaa !39
  %53 = sext i32 %51 to i64
  %54 = getelementptr inbounds i32, ptr %.val.i55, i64 %53
  %55 = load i32, ptr %54, align 4, !tbaa !40
  br label %If_DsdObjTruthId.exit56

If_DsdObjTruthId.exit56:                          ; preds = %49, %50
  %56 = phi i32 [ %55, %50 ], [ -1, %49 ]
  br i1 %40, label %57, label %If_DsdObjTruthId.exit59

57:                                               ; preds = %If_DsdObjTruthId.exit56
  %58 = load i32, ptr %13, align 4, !tbaa !34
  %59 = getelementptr i8, ptr %0, i64 80
  %.val.i58 = load ptr, ptr %59, align 8, !tbaa !39
  %60 = sext i32 %58 to i64
  %61 = getelementptr inbounds i32, ptr %.val.i58, i64 %60
  %62 = load i32, ptr %61, align 4, !tbaa !40
  br label %If_DsdObjTruthId.exit59

If_DsdObjTruthId.exit59:                          ; preds = %If_DsdObjTruthId.exit56, %57
  %63 = phi i32 [ %62, %57 ], [ -1, %If_DsdObjTruthId.exit56 ]
  %64 = icmp sgt i32 %56, %63
  br i1 %64, label %.loopexit, label %65

65:                                               ; preds = %If_DsdObjTruthId.exit59, %29
  %.not61 = icmp ult i32 %.val45, 134217728
  br i1 %.not61, label %._crit_edge, label %.lr.ph

.lr.ph:                                           ; preds = %65
  %66 = getelementptr inbounds nuw i8, ptr %9, i64 8
  %67 = getelementptr inbounds nuw i8, ptr %13, i64 8
  %wide.trip.count = zext nneg i32 %24 to i64
  br label %69

68:                                               ; preds = %69
  %indvars.iv.next = add nuw nsw i64 %indvars.iv, 1
  %exitcond.not = icmp eq i64 %indvars.iv.next, %wide.trip.count
  br i1 %exitcond.not, label %._crit_edge, label %69, !llvm.loop !157

69:                                               ; preds = %.lr.ph, %68
  %indvars.iv = phi i64 [ 0, %.lr.ph ], [ %indvars.iv.next, %68 ]
  %70 = getelementptr inbounds nuw [0 x i32], ptr %66, i64 0, i64 %indvars.iv
  %71 = load i32, ptr %70, align 4, !tbaa !40
  %72 = getelementptr inbounds nuw [0 x i32], ptr %67, i64 0, i64 %indvars.iv
  %73 = load i32, ptr %72, align 4, !tbaa !40
  %74 = tail call i32 @If_DsdObjCompare(ptr noundef %0, ptr noundef %1, i32 noundef %71, i32 noundef %73)
  %.not = icmp eq i32 %74, 0
  br i1 %.not, label %68, label %.loopexit

._crit_edge:                                      ; preds = %68, %65
  %75 = and i32 %2, 1
  %76 = and i32 %3, 1
  %77 = icmp samesign ugt i32 %75, %76
  br i1 %77, label %.loopexit, label %78

78:                                               ; preds = %._crit_edge
  %79 = icmp samesign ult i32 %75, %76
  %. = zext i1 %79 to i32
  br label %.loopexit

.loopexit:                                        ; preds = %69, %78, %._crit_edge, %If_DsdObjTruthId.exit59, %If_DsdObjTruthId.exit53, %27, %23, %21, %19, %4
  %.0 = phi i32 [ -1, %4 ], [ 1, %19 ], [ 0, %21 ], [ -1, %23 ], [ 1, %27 ], [ -1, %If_DsdObjTruthId.exit53 ], [ 1, %If_DsdObjTruthId.exit59 ], [ -1, %._crit_edge ], [ %., %78 ], [ %74, %69 ]
  ret i32 %.0
}